target datalayout = "e-m:e-p270:32:32-p271:32:32-p272:64:64-i64:64-i128:128-f80:128-n8:16:32:64-S128"
target triple = "x86_64-pc-linux-gnu"

%"class.icu_77::StringSearch" = type { %"class.icu_77::SearchIterator", %"class.icu_77::UnicodeString", ptr }
%"class.icu_77::SearchIterator" = type { %"class.icu_77::UObject", ptr, ptr, %"class.icu_77::UnicodeString" }
%"class.icu_77::UObject" = type { ptr }
%"class.icu_77::UnicodeString" = type { %"class.icu_77::Replaceable", %"union.icu_77::UnicodeString::StackBufferOrFields" }
%"class.icu_77::Replaceable" = type { %"class.icu_77::UObject" }
%"union.icu_77::UnicodeString::StackBufferOrFields" = type { %struct.anon.0, [32 x i8] }
%struct.anon.0 = type { i16, i32, i32, ptr }
%struct.UStringSearch = type { ptr, %struct.UPattern, ptr, ptr, ptr, ptr, ptr, i8, i32, i32, i32, i8 }
%struct.UPattern = type { ptr, i32, i32, ptr, [256 x i32], i32, ptr, [256 x i64], i8, i8 }
%struct.anon = type { i16, [27 x i16] }
%"class.icu_77::Locale" = type <{ %"class.icu_77::UObject", [12 x i8], [6 x i8], [4 x i8], [2 x i8], i32, [4 x i8], ptr, [157 x i8], [3 x i8], ptr, i8, [7 x i8] }>

; Function Attrs: inlinehint mustprogress nounwind uwtable
define linkonce_odr noundef i32 @_ZNK6icu_7713UnicodeString14getShortLengthEv(ptr noundef nonnull align 8 dereferenceable(64) %0) #3 comdat align 2 {
  %2 = alloca ptr, align 8
  store ptr %0, ptr %2, align 8, !tbaa !8
  %3 = load ptr, ptr %2, align 8
  %4 = getelementptr inbounds nuw %"class.icu_77::UnicodeString", ptr %3, i32 0, i32 1
  %5 = getelementptr inbounds nuw %struct.anon.0, ptr %4, i32 0, i32 0
  %6 = load i16, ptr %5, align 8, !tbaa !40
  %7 = sext i16 %6 to i32
  %8 = ashr i32 %7, 5
  ret i32 %8
}

; Function Attrs: inlinehint mustprogress nounwind uwtable
define linkonce_odr noundef signext i8 @_ZNK6icu_7713UnicodeString14hasShortLengthEv(ptr noundef nonnull align 8 dereferenceable(64) %0) #3 comdat align 2 {
  %2 = alloca ptr, align 8
  store ptr %0, ptr %2, align 8, !tbaa !8
  %3 = load ptr, ptr %2, align 8
  %4 = getelementptr inbounds nuw %"class.icu_77::UnicodeString", ptr %3, i32 0, i32 1
  %5 = getelementptr inbounds nuw %struct.anon.0, ptr %4, i32 0, i32 0
  %6 = load i16, ptr %5, align 8, !tbaa !40
  %7 = sext i16 %6 to i32
  %8 = icmp sge i32 %7, 0
  %9 = zext i1 %8 to i8
  ret i8 %9
}

; Function Attrs: inlinehint mustprogress nounwind uwtable
define internal noundef signext i8 @_ZL9U_SUCCESS10UErrorCode(i32 noundef %0) #3 {
  %2 = alloca i32, align 4
  store i32 %0, ptr %2, align 4, !tbaa !17
  %3 = load i32, ptr %2, align 4, !tbaa !17
  %4 = icmp sle i32 %3, 0
  %5 = zext i1 %4 to i8
  ret i8 %5
}

; Function Attrs: inlinehint mustprogress nounwind uwtable
define linkonce_odr noundef ptr @_ZNK6icu_776Locale7getNameEv(ptr noundef nonnull align 8 dereferenceable(217) %0) #3 comdat align 2 {
  %2 = alloca ptr, align 8
  store ptr %0, ptr %2, align 8, !tbaa !10
  %3 = load ptr, ptr %2, align 8
  %4 = getelementptr inbounds nuw %"class.icu_77::Locale", ptr %3, i32 0, i32 7
  %5 = load ptr, ptr %4, align 8, !tbaa !41
  ret ptr %5
}

; Function Attrs: inlinehint mustprogress uwtable
define linkonce_odr noundef i32 @_ZNK6icu_7713UnicodeString6lengthEv(ptr noundef nonnull align 8 dereferenceable(64) %0) #4 comdat align 2 {
  %2 = alloca ptr, align 8
  store ptr %0, ptr %2, align 8, !tbaa !8
  %3 = load ptr, ptr %2, align 8
  %4 = call noundef signext i8 @_ZNK6icu_7713UnicodeString14hasShortLengthEv(ptr noundef nonnull align 8 dereferenceable(64) %3)
  %5 = icmp ne i8 %4, 0
  br i1 %5, label %6, label %8

6:                                                ; preds = %1
  %7 = call noundef i32 @_ZNK6icu_7713UnicodeString14getShortLengthEv(ptr noundef nonnull align 8 dereferenceable(64) %3)
  br label %12

8:                                                ; preds = %1
  %9 = getelementptr inbounds nuw %"class.icu_77::UnicodeString", ptr %3, i32 0, i32 1
  %10 = getelementptr inbounds nuw %struct.anon.0, ptr %9, i32 0, i32 1
  %11 = load i32, ptr %10, align 4, !tbaa !40
  br label %12

12:                                               ; preds = %8, %6
  %13 = phi i32 [ %7, %6 ], [ %11, %8 ]
  ret i32 %13
}

; Function Attrs: inlinehint mustprogress nounwind uwtable
define linkonce_odr noundef ptr @_ZNK6icu_7713UnicodeString9getBufferEv(ptr noundef nonnull align 8 dereferenceable(64) %0) #3 comdat align 2 {
  %2 = alloca ptr, align 8
  %3 = alloca ptr, align 8
  store ptr %0, ptr %3, align 8, !tbaa !8
  %4 = load ptr, ptr %3, align 8
  %5 = getelementptr inbounds nuw %"class.icu_77::UnicodeString", ptr %4, i32 0, i32 1
  %6 = getelementptr inbounds nuw %struct.anon.0, ptr %5, i32 0, i32 0
  %7 = load i16, ptr %6, align 8, !tbaa !40
  %8 = sext i16 %7 to i32
  %9 = and i32 %8, 17
  %10 = icmp ne i32 %9, 0
  br i1 %10, label %11, label %12

11:                                               ; preds = %1
  store ptr null, ptr %2, align 8
  br label %27

12:                                               ; preds = %1
  %13 = getelementptr inbounds nuw %"class.icu_77::UnicodeString", ptr %4, i32 0, i32 1
  %14 = getelementptr inbounds nuw %struct.anon.0, ptr %13, i32 0, i32 0
  %15 = load i16, ptr %14, align 8, !tbaa !40
  %16 = sext i16 %15 to i32
  %17 = and i32 %16, 2
  %18 = icmp ne i32 %17, 0
  br i1 %18, label %19, label %23

19:                                               ; preds = %12
  %20 = getelementptr inbounds nuw %"class.icu_77::UnicodeString", ptr %4, i32 0, i32 1
  %21 = getelementptr inbounds nuw %struct.anon, ptr %20, i32 0, i32 1
  %22 = getelementptr inbounds [27 x i16], ptr %21, i64 0, i64 0
  store ptr %22, ptr %2, align 8
  br label %27

23:                                               ; preds = %12
  %24 = getelementptr inbounds nuw %"class.icu_77::UnicodeString", ptr %4, i32 0, i32 1
  %25 = getelementptr inbounds nuw %struct.anon.0, ptr %24, i32 0, i32 3
  %26 = load ptr, ptr %25, align 8, !tbaa !40
  store ptr %26, ptr %2, align 8
  br label %27

27:                                               ; preds = %23, %19, %11
  %28 = load ptr, ptr %2, align 8
  ret ptr %28
}

; Function Attrs: inlinehint mustprogress nounwind uwtable
define internal noundef signext i8 @_ZL9U_FAILURE10UErrorCode(i32 noundef %0) #3 {
  %2 = alloca i32, align 4
  store i32 %0, ptr %2, align 4, !tbaa !17
  %3 = load i32, ptr %2, align 4, !tbaa !17
  %4 = icmp sgt i32 %3, 0
  %5 = zext i1 %4 to i8
  ret i8 %5
}

; Function Attrs: mustprogress uwtable
define void @_ZN6icu_7712StringSearchC2ERKNS_13UnicodeStringES3_RKNS_6LocaleEPNS_13BreakIteratorER10UErrorCode(ptr noundef nonnull align 8 dereferenceable(160) %0, ptr noundef nonnull align 8 dereferenceable(64) %1, ptr noundef nonnull align 8 dereferenceable(64) %2, ptr noundef nonnull align 8 dereferenceable(217) %3, ptr noundef %4, ptr noundef nonnull align 4 dereferenceable(4) %5) unnamed_addr #1 align 2 personality ptr @__gxx_personality_v0 {
  %7 = alloca ptr, align 8
  %8 = alloca ptr, align 8
  %9 = alloca ptr, align 8
  %10 = alloca ptr, align 8
  %11 = alloca ptr, align 8
  %12 = alloca ptr, align 8
  %13 = alloca ptr, align 8
  %14 = alloca i32, align 4
  store ptr %0, ptr %7, align 8, !tbaa !3
  store ptr %1, ptr %8, align 8, !tbaa !8
  store ptr %2, ptr %9, align 8, !tbaa !8
  store ptr %3, ptr %10, align 8, !tbaa !10
  store ptr %4, ptr %11, align 8, !tbaa !12
  store ptr %5, ptr %12, align 8, !tbaa !14
  %15 = load ptr, ptr %7, align 8
  %16 = load ptr, ptr %9, align 8, !tbaa !8
  %17 = load ptr, ptr %11, align 8, !tbaa !12
  call void @_ZN6icu_7714SearchIteratorC2ERKNS_13UnicodeStringEPNS_13BreakIteratorE(ptr noundef nonnull align 8 dereferenceable(88) %15, ptr noundef nonnull align 8 dereferenceable(64) %16, ptr noundef %17)
  store ptr getelementptr inbounds inrange(-16, 112) ({ [16 x ptr] }, ptr @_ZTVN6icu_7712StringSearchE, i32 0, i32 0, i32 2), ptr %15, align 8, !tbaa !15
  %18 = getelementptr inbounds nuw %"class.icu_77::StringSearch", ptr %15, i32 0, i32 1
  %19 = load ptr, ptr %8, align 8, !tbaa !8
  invoke void @_ZN6icu_7713UnicodeStringC1ERKS0_(ptr noundef nonnull align 8 dereferenceable(64) %18, ptr noundef nonnull align 8 dereferenceable(64) %19)
          to label %20 unwind label %28

20:                                               ; preds = %6
  %21 = load ptr, ptr %12, align 8, !tbaa !14
  %22 = load i32, ptr %21, align 4, !tbaa !17
  %23 = invoke noundef signext i8 @_ZL9U_FAILURE10UErrorCode(i32 noundef %22)
          to label %24 unwind label %32

24:                                               ; preds = %20
  %25 = icmp ne i8 %23, 0
  br i1 %25, label %26, label %36

26:                                               ; preds = %24
  %27 = getelementptr inbounds nuw %"class.icu_77::StringSearch", ptr %15, i32 0, i32 2
  store ptr null, ptr %27, align 8, !tbaa !19
  br label %72

28:                                               ; preds = %6
  %29 = landingpad { ptr, i32 }
          cleanup
  %30 = extractvalue { ptr, i32 } %29, 0
  store ptr %30, ptr %13, align 8
  %31 = extractvalue { ptr, i32 } %29, 1
  store i32 %31, ptr %14, align 4
  br label %73

32:                                               ; preds = %59, %55, %51, %48, %45, %42, %39, %36, %20
  %33 = landingpad { ptr, i32 }
          cleanup
  %34 = extractvalue { ptr, i32 } %33, 0
  store ptr %34, ptr %13, align 8
  %35 = extractvalue { ptr, i32 } %33, 1
  store i32 %35, ptr %14, align 4
  call void @_ZN6icu_7713UnicodeStringD1Ev(ptr noundef nonnull align 8 dereferenceable(64) %18) #8
  br label %73

36:                                               ; preds = %24
  %37 = getelementptr inbounds nuw %"class.icu_77::StringSearch", ptr %15, i32 0, i32 1
  %38 = invoke noundef ptr @_ZNK6icu_7713UnicodeString9getBufferEv(ptr noundef nonnull align 8 dereferenceable(64) %37)
          to label %39 unwind label %32

39:                                               ; preds = %36
  %40 = getelementptr inbounds nuw %"class.icu_77::StringSearch", ptr %15, i32 0, i32 1
  %41 = invoke noundef i32 @_ZNK6icu_7713UnicodeString6lengthEv(ptr noundef nonnull align 8 dereferenceable(64) %40)
          to label %42 unwind label %32

42:                                               ; preds = %39
  %43 = getelementptr inbounds nuw %"class.icu_77::SearchIterator", ptr %15, i32 0, i32 3
  %44 = invoke noundef ptr @_ZNK6icu_7713UnicodeString9getBufferEv(ptr noundef nonnull align 8 dereferenceable(64) %43)
          to label %45 unwind label %32

45:                                               ; preds = %42
  %46 = getelementptr inbounds nuw %"class.icu_77::SearchIterator", ptr %15, i32 0, i32 3
  %47 = invoke noundef i32 @_ZNK6icu_7713UnicodeString6lengthEv(ptr noundef nonnull align 8 dereferenceable(64) %46)
          to label %48 unwind label %32

48:                                               ; preds = %45
  %49 = load ptr, ptr %10, align 8, !tbaa !10
  %50 = invoke noundef ptr @_ZNK6icu_776Locale7getNameEv(ptr noundef nonnull align 8 dereferenceable(217) %49)
          to label %51 unwind label %32

51:                                               ; preds = %48
  %52 = load ptr, ptr %11, align 8, !tbaa !12
  %53 = load ptr, ptr %12, align 8, !tbaa !14
  %54 = invoke ptr @usearch_open_77(ptr noundef %38, i32 noundef %41, ptr noundef %44, i32 noundef %47, ptr noundef %50, ptr noundef %52, ptr noundef %53)
          to label %55 unwind label %32

55:                                               ; preds = %51
  %56 = getelementptr inbounds nuw %"class.icu_77::StringSearch", ptr %15, i32 0, i32 2
  store ptr %54, ptr %56, align 8, !tbaa !19
  %57 = getelementptr inbounds nuw %"class.icu_77::SearchIterator", ptr %15, i32 0, i32 1
  %58 = load ptr, ptr %57, align 8, !tbaa !27
  invoke void @uprv_free_77(ptr noundef %58)
          to label %59 unwind label %32

59:                                               ; preds = %55
  %60 = getelementptr inbounds nuw %"class.icu_77::SearchIterator", ptr %15, i32 0, i32 1
  store ptr null, ptr %60, align 8, !tbaa !27
  %61 = load ptr, ptr %12, align 8, !tbaa !14
  %62 = load i32, ptr %61, align 4, !tbaa !17
  %63 = invoke noundef signext i8 @_ZL9U_SUCCESS10UErrorCode(i32 noundef %62)
          to label %64 unwind label %32

64:                                               ; preds = %59
  %65 = icmp ne i8 %63, 0
  br i1 %65, label %66, label %72

66:                                               ; preds = %64
  %67 = getelementptr inbounds nuw %"class.icu_77::StringSearch", ptr %15, i32 0, i32 2
  %68 = load ptr, ptr %67, align 8, !tbaa !19
  %69 = getelementptr inbounds nuw %struct.UStringSearch, ptr %68, i32 0, i32 0
  %70 = load ptr, ptr %69, align 8, !tbaa !28
  %71 = getelementptr inbounds nuw %"class.icu_77::SearchIterator", ptr %15, i32 0, i32 1
  store ptr %70, ptr %71, align 8, !tbaa !27
  br label %72

72:                                               ; preds = %26, %66, %64
  ret void

73:                                               ; preds = %32, %28
  call void @_ZN6icu_7714SearchIteratorD2Ev(ptr noundef nonnull align 8 dereferenceable(88) %15) #8
  br label %74

74:                                               ; preds = %73
  %75 = load ptr, ptr %13, align 8
  %76 = load i32, ptr %14, align 4
  %77 = insertvalue { ptr, i32 } poison, ptr %75, 0
  %78 = insertvalue { ptr, i32 } %77, i32 %76, 1
  resume { ptr, i32 } %78
}