; Function Attrs: mustprogress uwtable
define void @_ZN6icu_7712StringSearchC2ERKNS_13UnicodeStringES3_RKNS_6LocaleEPNS_13BreakIteratorER10UErrorCode(ptr noundef nonnull align 8 dereferenceable(160) %0, ptr noundef nonnull align 8 dereferenceable(64) %1, ptr noundef nonnull align 8 dereferenceable(64) %2, ptr noundef nonnull readonly align 8 captures(none) dereferenceable(217) %3, ptr noundef %4, ptr noundef nonnull align 4 dereferenceable(4) %5) unnamed_addr #1 align 2 personality ptr @__gxx_personality_v0 {
  tail call void @_ZN6icu_7714SearchIteratorC2ERKNS_13UnicodeStringEPNS_13BreakIteratorE(ptr noundef nonnull align 8 dereferenceable(88) %0, ptr noundef nonnull align 8 dereferenceable(64) %2, ptr noundef %4)
  store ptr getelementptr inbounds nuw inrange(-16, 112) (i8, ptr @_ZTVN6icu_7712StringSearchE, i64 16), ptr %0, align 8, !tbaa !3
  %7 = getelementptr inbounds nuw i8, ptr %0, i64 88
  invoke void @_ZN6icu_7713UnicodeStringC1ERKS0_(ptr noundef nonnull align 8 dereferenceable(64) %7, ptr noundef nonnull align 8 dereferenceable(64) %1)
          to label %8 unwind label %13

8:                                                ; preds = %6
  %9 = load i32, ptr %5, align 4, !tbaa !6
  %10 = icmp slt i32 %9, 1
  br i1 %10, label %17, label %11

11:                                               ; preds = %8
  %12 = getelementptr inbounds nuw i8, ptr %0, i64 152
  store ptr null, ptr %12, align 8, !tbaa !9
  br label %65

13:                                               ; preds = %6
  %14 = landingpad { ptr, i32 }
          cleanup
  br label %66

15:                                               ; preds = %55, %45
  %16 = landingpad { ptr, i32 }
          cleanup
  tail call void @_ZN6icu_7713UnicodeStringD1Ev(ptr noundef nonnull align 8 dereferenceable(64) %7) #9
  br label %66

17:                                               ; preds = %8
  %18 = getelementptr inbounds nuw i8, ptr %0, i64 96
  %19 = load i16, ptr %18, align 8, !tbaa !19
  %20 = and i16 %19, 17
  %.not.i = icmp eq i16 %20, 0
  br i1 %.not.i, label %21, label %28

21:                                               ; preds = %17
  %22 = and i16 %19, 2
  %.not2.i = icmp eq i16 %22, 0
  br i1 %.not2.i, label %25, label %23

23:                                               ; preds = %21
  %24 = getelementptr inbounds nuw i8, ptr %0, i64 98
  br label %28

25:                                               ; preds = %21
  %26 = getelementptr inbounds nuw i8, ptr %0, i64 112
  %27 = load ptr, ptr %26, align 8, !tbaa !19
  br label %28

28:                                               ; preds = %25, %23, %17
  %.0.i = phi ptr [ %24, %23 ], [ %27, %25 ], [ null, %17 ]
  %29 = icmp slt i16 %19, 0
  %30 = ashr i16 %19, 5
  %31 = sext i16 %30 to i32
  %32 = getelementptr inbounds nuw i8, ptr %0, i64 100
  %33 = load i32, ptr %32, align 4
  %34 = select i1 %29, i32 %33, i32 %31
  %35 = getelementptr inbounds nuw i8, ptr %0, i64 32
  %36 = load i16, ptr %35, align 8, !tbaa !19
  %37 = and i16 %36, 17
  %.not.i13 = icmp eq i16 %37, 0
  br i1 %.not.i13, label %38, label %45

38:                                               ; preds = %28
  %39 = and i16 %36, 2
  %.not2.i15 = icmp eq i16 %39, 0
  br i1 %.not2.i15, label %42, label %40

40:                                               ; preds = %38
  %41 = getelementptr inbounds nuw i8, ptr %0, i64 34
  br label %45

42:                                               ; preds = %38
  %43 = getelementptr inbounds nuw i8, ptr %0, i64 48
  %44 = load ptr, ptr %43, align 8, !tbaa !19
  br label %45

45:                                               ; preds = %42, %40, %28
  %.0.i14 = phi ptr [ %41, %40 ], [ %44, %42 ], [ null, %28 ]
  %46 = icmp slt i16 %36, 0
  %47 = ashr i16 %36, 5
  %48 = sext i16 %47 to i32
  %49 = getelementptr inbounds nuw i8, ptr %0, i64 36
  %50 = load i32, ptr %49, align 4
  %51 = select i1 %46, i32 %50, i32 %48
  %52 = getelementptr inbounds nuw i8, ptr %3, i64 40
  %53 = load ptr, ptr %52, align 8, !tbaa !20
  %54 = invoke ptr @usearch_open_77(ptr noundef %.0.i, i32 noundef %34, ptr noundef %.0.i14, i32 noundef %51, ptr noundef %53, ptr noundef %4, ptr noundef nonnull %5)
          to label %55 unwind label %15

55:                                               ; preds = %45
  %56 = getelementptr inbounds nuw i8, ptr %0, i64 152
  store ptr %54, ptr %56, align 8, !tbaa !9
  %57 = getelementptr inbounds nuw i8, ptr %0, i64 8
  %58 = load ptr, ptr %57, align 8, !tbaa !24
  invoke void @uprv_free_77(ptr noundef %58)
          to label %59 unwind label %15

59:                                               ; preds = %55
  store ptr null, ptr %57, align 8, !tbaa !24
  %60 = load i32, ptr %5, align 4, !tbaa !6
  %61 = icmp sgt i32 %60, 0
  br i1 %61, label %65, label %62

62:                                               ; preds = %59
  %63 = load ptr, ptr %56, align 8, !tbaa !9
  %64 = load ptr, ptr %63, align 8, !tbaa !25
  store ptr %64, ptr %57, align 8, !tbaa !24
  br label %65

65:                                               ; preds = %62, %59, %11
  ret void

66:                                               ; preds = %15, %13
  %.pn = phi { ptr, i32 } [ %16, %15 ], [ %14, %13 ]
  tail call void @_ZN6icu_7714SearchIteratorD2Ev(ptr noundef nonnull align 8 dereferenceable(88) %0) #9
  resume { ptr, i32 } %.pn
}